(dp1
S'time_gp'
p2
I1161
sS'nlml_time16'
p3
cnumpy.core.multiarray
scalar
p4
(cnumpy
dtype
p5
(S'f8'
I0
I1
tRp6
(I3
S'<'
NNNI-1
I-1
I0
tbS'\x00\x00\x00 \xc9-\xf6?'
tRp7
sS'nlml_time256'
p8
g4
(g6
S'ffff\x7f*\xc9?'
tRp9
sS'nlml_time4'
p10
g4
(g6
S'\x00\x00\x00\xa0\x16O:@'
tRp11
sS'nlml_time64'
p12
g4
(g6
S'\x9a\x99\x99\x19>\x9e\xd7?'
tRp13
s.